; Function Attrs: nounwind uwtable
define internal range(i32 0, 28) i32 @file_setup_connection(ptr noundef writeonly captures(none) initializes((432, 440)) %0, ptr readnone captures(none) %1) #0 {
  %3 = load ptr, ptr @Curl_ccalloc, align 8, !tbaa !4
  %4 = tail call ptr %3(i64 noundef 1, i64 noundef 24) #8
  %5 = getelementptr inbounds nuw i8, ptr %0, i64 432
  store ptr %4, ptr %5, align 8, !tbaa !8
  %.not = icmp eq ptr %4, null
  %. = select i1 %.not, i32 27, i32 0
  ret i32 %.
}